(lp0
(dp1
S'note'
p2
S'C0'
p3
sS'frequency'
p4
F16.351597831547178
sa(dp5
g2
S'C#0/Db0'
p6
sg4
F17.323914436324884
sa(dp7
g2
S'D0'
p8
sg4
F18.354047995119313
sa(dp9
g2
S'D#0/Eb0'
p10
sg4
F19.44543648292271
sa(dp11
g2
S'E0'
p12
sg4
F20.601722307358685
sa(dp13
g2
S'F0'
p14
sg4
F21.82676446487907
sa(dp15
g2
S'F#0/Gb0'
p16
sg4
F23.124651419805836
sa(dp17
g2
S'G0'
p18
sg4
F24.499714749200734
sa(dp19
g2
S'G#0/Ab0'
p20
sg4
F25.956543599101046
sa(dp21
g2
S'A0'
p22
sg4
F27.500000000367887
sa(dp23
g2
S'A#0/Bb0'
p24
sg4
F29.13523509526226
sa(dp25
g2
S'B0'
p26
sg4
F30.86770632890349
sa(dp27
g2
S'C1'
p28
sg4
F32.703195662984974
sa(dp29
g2
S'C#1/Db1'
p30
sg4
F34.64782887253389
sa(dp31
g2
S'D1'
p32
sg4
F36.708095990115865
sa(dp33
g2
S'D#1/Eb1'
p34
sg4
F38.890872965715346
sa(dp35
g2
S'E1'
p36
sg4
F41.20344461457956
sa(dp37
g2
S'F1'
p38
sg4
F43.653528929612136
sa(dp39
g2
S'F#1/Gb1'
p40
sg4
F46.249302839457
sa(dp41
g2
S'G1'
p42
sg4
F48.999429498237596
sa(dp43
g2
S'G#1/Ab1'
p44
sg4
F51.91308719802847
sa(dp45
g2
S'A1'
p46
sg4
F55.00000000055183
sa(dp47
g2
S'A#1/Bb1'
p48
sg4
F58.27047019032965
sa(dp49
g2
S'B1'
p50
sg4
F61.735412657600506
sa(dp51
g2
S'C2'
p52
sg4
F65.4063913257512
sa(dp53
g2
S'C#2/Db2'
p54
sg4
F69.29565774483603
sa(dp55
g2
S'D2'
p56
sg4
F73.4161919799862
sa(dp57
g2
S'D#2/Eb2'
p58
sg4
F77.78174593117058
sa(dp59
g2
S'E2'
p60
sg4
F82.40688922888353
sa(dp61
g2
S'F2'
p62
sg4
F87.30705785893228
sa(dp63
g2
S'F#2/Gb2'
p64
sg4
F92.49860567860465
sa(dp65
g2
S'G2'
p66
sg4
F97.99885899614745
sa(dp67
g2
S'G#2/Ab2'
p68
sg4
F103.8261743957097
sa(dp69
g2
S'A2'
p70
sg4
F110.00000000073578
sa(dp71
g2
S'A#2/Bb2'
p72
sg4
F116.54094038026952
sa(dp73
g2
S'B2'
p74
sg4
F123.47082531478809
sa(dp75
g2
S'C3'
p76
sg4
F130.81278265106494
sa(dp77
g2
S'C#3/Db3'
p78
sg4
F138.59131548920857
sa(dp79
g2
S'D3'
p80
sg4
F146.8323839594813
sa(dp81
g2
S'D#3/Eb3'
p82
sg4
F155.56349186182086
sa(dp83
g2
S'E3'
p84
sg4
F164.81377845721582
sa(dp85
g2
S'F3'
p86
sg4
F174.61411571728058
sa(dp87
g2
S'F#3/Gb3'
p88
sg4
F184.99721135659058
sa(dp89
g2
S'G3'
p90
sg4
F195.99771799163938
sa(dp91
g2
S'G#3/Ab3'
p92
sg4
F207.65234879072491
sa(dp93
g2
S'A3'
p94
sg4
F220.00000000073578
sa(dp95
g2
S'A#3/Bb3'
p96
sg4
F233.08188075975954
sa(dp97
g2
S'B3'
p98
sg4
F246.9416506287503
sa(dp99
g2
S'C4'
p100
sg4
F261.6255653012549
sa(dp101
g2
S'C#4/Db4'
p102
sg4
F277.1826309774901
sa(dp103
g2
S'D4'
p104
sg4
F293.6647679179805
sa(dp105
g2
S'D#4/Eb4'
p106
sg4
F311.1269837226012
sa(dp107
g2
S'E4'
p108
sg4
F329.6275569133293
sa(dp109
g2
S'F4'
p110
sg4
F349.2282314333932
sa(dp111
g2
S'F#4/Gb4'
p112
sg4
F369.99442271194374
sa(dp113
g2
S'G4'
p114
sg4
F391.9954359819678
sa(dp115
g2
S'G#4/Ab4'
p116
sg4
F415.30469758006086
sa(dp117
g2
S'A4'
p118
sg4
F440.0
sa(dp119
g2
S'A#4/Bb4'
p120
sg4
F466.16376151796
sa(dp121
g2
S'B4'
p122
sg4
F493.88330125584883
sa(dp123
g2
S'C5'
p124
sg4
F523.2511306007598
sa(dp125
g2
S'C#5/Db5'
p126
sg4
F554.3652619531262
sa(dp127
g2
S'D5'
p128
sg4
F587.3295358339967
sa(dp129
g2
S'D#5/Eb5'
p130
sg4
F622.2539674431213
sa(dp131
g2
S'E5'
p132
sg4
F659.2551138244537
sa(dp133
g2
S'F5'
p134
sg4
F698.4564628644505
sa(dp135
g2
S'F#5/Gb5'
p136
sg4
F739.9888454214126
sa(dp137
g2
S'G5'
p138
sg4
F783.9908719613136
sa(dp139
g2
S'G#5/Ab5'
p140
sg4
F830.6093951573439
sa(dp141
g2
S'A5'
p142
sg4
F879.9999999970569
sa(dp143
g2
S'A#5/Bb5'
p144
sg4
F932.3275230328018
sa(dp145
g2
S'B5'
p146
sg4
F987.7666025083942
sa(dp147
g2
S'C6'
p148
sg4
F1046.5022611980196
sa(dp149
g2
S'C#6/Db6'
p150
sg4
F1108.7305239025443
sa(dp151
g2
S'D6'
p152
sg4
F1174.6590716640649
sa(dp153
g2
S'D#6/Eb6'
p154
sg4
F1244.5079348820802
sa(dp155
g2
S'E6'
p156
sg4
F1318.5102276444977
sa(dp157
g2
S'F6'
p158
sg4
F1396.9129257242291
sa(dp159
g2
S'F#6/Gb6'
p160
sg4
F1479.9776908378756
sa(dp161
g2
S'G6'
p162
sg4
F1567.9817439173833
sa(dp163
g2
S'G#6/Ab6'
p164
sg4
F1661.218790309132
sa(dp165
g2
S'A6'
p166
sg4
F1759.9999999882275
sa(dp167
g2
S'A#6/Bb6'
p168
sg4
F1864.6550460593676
sa(dp169
g2
S'B6'
p170
sg4
F1975.533205010181
sa(dp171
g2
S'C7'
p172
sg4
F2093.0045223890393
sa(dp173
g2
S'C#7/Db7'
p174
sg4
F2217.4610477976726
sa(dp175
g2
S'D7'
p176
sg4
F2349.318143320272
sa(dp177
g2
S'D#7/Eb7'
p178
sg4
F2489.015869755837
sa(dp179
g2
S'E7'
p180
sg4
F2637.0204552801765
sa(dp181
g2
S'F7'
p182
sg4
F2793.8258514391146
sa(dp183
g2
S'F#7/Gb7'
p184
sg4
F2959.955381665852
sa(dp185
g2
S'G7'
p186
sg4
F3135.963487824278
sa(dp187
g2
S'G#7/Ab7'
p188
sg4
F3322.437580607152
sa(dp189
g2
S'A7'
p190
sg4
F3519.999999964683
sa(dp191
g2
S'A#7/Bb7'
p192
sg4
F3729.3100921062623
sa(dp193
g2
S'B7'
p194
sg4
F3951.0664100071485
sa(dp195
g2
S'C8'
p196
sg4
F4186.009044764079
sa(dp197
g2
S'C#8/Db8'
p198
sg4
F4434.922095580513
sa(dp199
g2
S'D8'
p200
sg4
F4698.636286624831
sa(dp201
g2
S'D#8/Eb8'
p202
sg4
F4978.031739495024
sa(dp203
g2
S'E8'
p204
sg4
F5274.040910542713
sa(dp205
g2
S'F8'
p206
sg4
F5587.651702859542
sa(dp207
g2
S'F#8/Gb8'
p208
sg4
F5919.910763311906
sa(dp209
g2
S'G8'
p210
sg4
F6271.926975627581
sa(dp211
g2
S'G#8/Ab8'
p212
sg4
F6644.875161192082
sa(dp213
g2
S'A8'
p214
sg4
F7039.999999905822
sa(dp215
g2
S'A#8/Bb8'
p216
sg4
F7458.620184187581
sa(dp217
g2
S'B8'
p218
sg4
F7902.132819987868
sa.